target datalayout = "e-m:e-p270:32:32-p271:32:32-p272:64:64-i64:64-i128:128-f80:128-n8:16:32:64-S128"
target triple = "x86_64-pc-linux-gnu"

%struct.udp_send_arg = type { ptr, ptr, %struct.rsock_send_arg }
%struct.rsock_send_arg = type { i32, i32, i64, ptr, i32 }
%struct.rb_io = type { i64, ptr, i32, i32, i32, i32, i64, ptr, %struct.rb_io_internal_buffer, %struct.rb_io_internal_buffer, i64, %struct.rb_io_encoding, ptr, %struct.rb_io_internal_buffer, ptr, i64, i32, i32, i64, i64, i64 }
%struct.rb_io_encoding = type { ptr, ptr, i32, i64 }
%struct.rb_io_internal_buffer = type <{ ptr, i32, i32, i32 }>
%struct.rb_addrinfo = type { ptr, i32 }
%struct.addrinfo = type { i32, i32, i32, i32, i32, ptr, ptr, ptr }

; Function Attrs: inlinehint nounwind sspstrong willreturn memory(none) uwtable
define internal i64 @RB_INT2FIX(i64 noundef %0) #7 {
  %2 = alloca i64, align 8
  %3 = alloca i64, align 8
  %4 = alloca i64, align 8
  %5 = alloca i64, align 8
  %6 = alloca i64, align 8
  %7 = alloca i64, align 8
  store i64 %0, ptr %2, align 8, !tbaa !6
  call void @llvm.lifetime.start.p0(i64 8, ptr %3) #10
  %8 = load i64, ptr %2, align 8, !tbaa !6
  store i64 %8, ptr %3, align 8, !tbaa !6
  call void @llvm.lifetime.start.p0(i64 8, ptr %4) #10
  %9 = load i64, ptr %3, align 8, !tbaa !6
  %10 = shl i64 %9, 1
  %11 = add i64 %10, 1
  store i64 %11, ptr %4, align 8, !tbaa !6
  call void @llvm.lifetime.start.p0(i64 8, ptr %5) #10
  %12 = load i64, ptr %4, align 8, !tbaa !6
  store i64 %12, ptr %5, align 8, !tbaa !6
  call void @llvm.lifetime.start.p0(i64 8, ptr %6) #10
  %13 = load i64, ptr %5, align 8, !tbaa !6
  store i64 %13, ptr %6, align 8, !tbaa !6
  call void @llvm.lifetime.start.p0(i64 8, ptr %7) #10
  %14 = load i64, ptr %6, align 8, !tbaa !6
  store i64 %14, ptr %7, align 8, !tbaa !6
  %15 = load i64, ptr %7, align 8, !tbaa !6
  call void @llvm.lifetime.end.p0(i64 8, ptr %7) #10
  call void @llvm.lifetime.end.p0(i64 8, ptr %6) #10
  call void @llvm.lifetime.end.p0(i64 8, ptr %5) #10
  call void @llvm.lifetime.end.p0(i64 8, ptr %4) #10
  call void @llvm.lifetime.end.p0(i64 8, ptr %3) #10
  ret i64 %15
}

; Function Attrs: inlinehint nounwind sspstrong uwtable
define internal i64 @rb_ll2num_inline(i64 noundef %0) #5 {
  %2 = alloca i64, align 8
  %3 = alloca i64, align 8
  store i64 %0, ptr %3, align 8, !tbaa !70
  %4 = load i64, ptr %3, align 8, !tbaa !70
  %5 = icmp slt i64 %4, 4611686018427387904
  br i1 %5, label %6, label %12

6:                                                ; preds = %1
  %7 = load i64, ptr %3, align 8, !tbaa !70
  %8 = icmp sge i64 %7, -4611686018427387904
  br i1 %8, label %9, label %12

9:                                                ; preds = %6
  %10 = load i64, ptr %3, align 8, !tbaa !70
  %11 = call i64 @RB_INT2FIX(i64 noundef %10) #13
  store i64 %11, ptr %2, align 8
  br label %15

12:                                               ; preds = %6, %1
  %13 = load i64, ptr %3, align 8, !tbaa !70
  %14 = call i64 @rb_ll2inum(i64 noundef %13)
  store i64 %14, ptr %2, align 8
  br label %15

15:                                               ; preds = %12, %9
  %16 = load i64, ptr %2, align 8
  ret i64 %16
}

; Function Attrs: nounwind sspstrong uwtable
define internal i64 @udp_send_internal(i64 noundef %0) #0 {
  %2 = alloca i64, align 8
  %3 = alloca i64, align 8
  %4 = alloca ptr, align 8
  %5 = alloca ptr, align 8
  %6 = alloca ptr, align 8
  %7 = alloca i64, align 8
  %8 = alloca i32, align 4
  store i64 %0, ptr %3, align 8, !tbaa !6
  call void @llvm.lifetime.start.p0(i64 8, ptr %4) #10
  %9 = load i64, ptr %3, align 8, !tbaa !6
  %10 = inttoptr i64 %9 to ptr
  store ptr %10, ptr %4, align 8, !tbaa !64
  call void @llvm.lifetime.start.p0(i64 8, ptr %5) #10
  call void @llvm.lifetime.start.p0(i64 8, ptr %6) #10
  %11 = load ptr, ptr %4, align 8, !tbaa !64
  %12 = getelementptr inbounds nuw %struct.udp_send_arg, ptr %11, i32 0, i32 0
  %13 = load ptr, ptr %12, align 8, !tbaa !23
  store ptr %13, ptr %5, align 8, !tbaa !62
  call void @rb_io_check_closed(ptr noundef %13)
  %14 = load ptr, ptr %4, align 8, !tbaa !64
  %15 = getelementptr inbounds nuw %struct.udp_send_arg, ptr %14, i32 0, i32 1
  %16 = load ptr, ptr %15, align 8, !tbaa !37
  %17 = getelementptr inbounds nuw %struct.rb_addrinfo, ptr %16, i32 0, i32 0
  %18 = load ptr, ptr %17, align 8, !tbaa !53
  store ptr %18, ptr %6, align 8, !tbaa !56
  br label %19

19:                                               ; preds = %61, %1
  %20 = load ptr, ptr %6, align 8, !tbaa !56
  %21 = icmp ne ptr %20, null
  br i1 %21, label %22, label %65

22:                                               ; preds = %19
  br label %23

23:                                               ; preds = %59, %22
  %24 = load ptr, ptr %5, align 8, !tbaa !62
  %25 = getelementptr inbounds nuw %struct.rb_io, ptr %24, i32 0, i32 2
  %26 = load i32, ptr %25, align 8, !tbaa !27
  %27 = load ptr, ptr %4, align 8, !tbaa !64
  %28 = getelementptr inbounds nuw %struct.udp_send_arg, ptr %27, i32 0, i32 2
  %29 = getelementptr inbounds nuw %struct.rsock_send_arg, ptr %28, i32 0, i32 0
  store i32 %26, ptr %29, align 8, !tbaa !35
  %30 = load ptr, ptr %6, align 8, !tbaa !56
  %31 = getelementptr inbounds nuw %struct.addrinfo, ptr %30, i32 0, i32 5
  %32 = load ptr, ptr %31, align 8, !tbaa !57
  %33 = load ptr, ptr %4, align 8, !tbaa !64
  %34 = getelementptr inbounds nuw %struct.udp_send_arg, ptr %33, i32 0, i32 2
  %35 = getelementptr inbounds nuw %struct.rsock_send_arg, ptr %34, i32 0, i32 3
  store ptr %32, ptr %35, align 8, !tbaa !66
  %36 = load ptr, ptr %6, align 8, !tbaa !56
  %37 = getelementptr inbounds nuw %struct.addrinfo, ptr %36, i32 0, i32 4
  %38 = load i32, ptr %37, align 8, !tbaa !59
  %39 = load ptr, ptr %4, align 8, !tbaa !64
  %40 = getelementptr inbounds nuw %struct.udp_send_arg, ptr %39, i32 0, i32 2
  %41 = getelementptr inbounds nuw %struct.rsock_send_arg, ptr %40, i32 0, i32 4
  store i32 %38, ptr %41, align 8, !tbaa !67
  %42 = load ptr, ptr %5, align 8, !tbaa !62
  %43 = load ptr, ptr %4, align 8, !tbaa !64
  %44 = getelementptr inbounds nuw %struct.udp_send_arg, ptr %43, i32 0, i32 2
  %45 = call i64 @rb_io_blocking_region(ptr noundef %42, ptr noundef @rsock_sendto_blocking, ptr noundef %44)
  store i64 %45, ptr %7, align 8, !tbaa !6
  %46 = load i64, ptr %7, align 8, !tbaa !6
  %47 = icmp sge i64 %46, 0
  br i1 %47, label %48, label %51

48:                                               ; preds = %23
  %49 = load i64, ptr %7, align 8, !tbaa !6
  %50 = call i64 @rb_ll2num_inline(i64 noundef %49)
  store i64 %50, ptr %2, align 8
  store i32 1, ptr %8, align 4
  br label %66

51:                                               ; preds = %23
  %52 = call ptr @rb_errno_ptr()
  %53 = load i32, ptr %52, align 4, !tbaa !10
  %54 = load ptr, ptr %5, align 8, !tbaa !62
  %55 = getelementptr inbounds nuw %struct.rb_io, ptr %54, i32 0, i32 0
  %56 = load i64, ptr %55, align 8, !tbaa !68
  %57 = call i32 @rb_io_maybe_wait_writable(i32 noundef %53, i64 noundef %56, i64 noundef 4)
  %58 = icmp ne i32 %57, 0
  br i1 %58, label %59, label %60

59:                                               ; preds = %51
  br label %23

60:                                               ; preds = %51
  br label %61

61:                                               ; preds = %60
  %62 = load ptr, ptr %6, align 8, !tbaa !56
  %63 = getelementptr inbounds nuw %struct.addrinfo, ptr %62, i32 0, i32 7
  %64 = load ptr, ptr %63, align 8, !tbaa !60
  store ptr %64, ptr %6, align 8, !tbaa !56
  br label %19, !llvm.loop !69

65:                                               ; preds = %19
  store i64 0, ptr %2, align 8
  store i32 1, ptr %8, align 4
  br label %66

66:                                               ; preds = %65, %48
  call void @llvm.lifetime.end.p0(i64 8, ptr %6) #10
  call void @llvm.lifetime.end.p0(i64 8, ptr %5) #10
  call void @llvm.lifetime.end.p0(i64 8, ptr %4) #10
  %67 = load i64, ptr %2, align 8
  ret i64 %67
}