; Function Attrs: nounwind sspstrong uwtable
define internal i64 @udp_send_internal(i64 noundef %0) #0 {
  %2 = inttoptr i64 %0 to ptr
  %3 = load ptr, ptr %2, align 8, !tbaa !25
  tail call void @rb_io_check_closed(ptr noundef %3) #5
  %4 = getelementptr inbounds nuw i8, ptr %2, i64 8
  %5 = load ptr, ptr %4, align 8, !tbaa !39
  %.01620 = load ptr, ptr %5, align 8, !tbaa !40
  %.not21 = icmp eq ptr %.01620, null
  br i1 %.not21, label %rb_ll2num_inline.exit, label %.preheader.lr.ph

.preheader.lr.ph:                                 ; preds = %1
  %6 = getelementptr inbounds nuw i8, ptr %3, i64 16
  %7 = getelementptr inbounds nuw i8, ptr %2, i64 16
  %8 = getelementptr inbounds nuw i8, ptr %2, i64 32
  %9 = getelementptr inbounds nuw i8, ptr %2, i64 40
  br label %.preheader

.preheader:                                       ; preds = %.preheader.lr.ph, %30
  %.01622 = phi ptr [ %.01620, %.preheader.lr.ph ], [ %.016, %30 ]
  %10 = getelementptr inbounds nuw i8, ptr %.01622, i64 24
  %11 = getelementptr inbounds nuw i8, ptr %.01622, i64 16
  br label %12

12:                                               ; preds = %.preheader, %25
  %13 = load i32, ptr %6, align 8, !tbaa !29
  store i32 %13, ptr %7, align 8, !tbaa !37
  %14 = load ptr, ptr %10, align 8, !tbaa !43
  store ptr %14, ptr %8, align 8, !tbaa !47
  %15 = load i32, ptr %11, align 8, !tbaa !45
  store i32 %15, ptr %9, align 8, !tbaa !48
  %16 = tail call i64 @rb_io_blocking_region(ptr noundef %3, ptr noundef nonnull @rsock_sendto_blocking, ptr noundef nonnull %7) #5
  %17 = icmp sgt i64 %16, -1
  br i1 %17, label %18, label %25

18:                                               ; preds = %12
  %19 = icmp samesign ult i64 %16, 4611686018427387904
  br i1 %19, label %20, label %23

20:                                               ; preds = %18
  %21 = shl nuw nsw i64 %16, 1
  %22 = or disjoint i64 %21, 1
  br label %rb_ll2num_inline.exit

23:                                               ; preds = %18
  %24 = tail call i64 @rb_ll2inum(i64 noundef range(i64 0, -9223372036854775808) %16) #5
  br label %rb_ll2num_inline.exit

25:                                               ; preds = %12
  %26 = tail call ptr @rb_errno_ptr() #5
  %27 = load i32, ptr %26, align 4, !tbaa !10
  %28 = load i64, ptr %3, align 8, !tbaa !49
  %29 = tail call i32 @rb_io_maybe_wait_writable(i32 noundef %27, i64 noundef %28, i64 noundef 4) #5
  %.not18 = icmp eq i32 %29, 0
  br i1 %.not18, label %30, label %12

30:                                               ; preds = %25
  %31 = getelementptr inbounds nuw i8, ptr %.01622, i64 40
  %.016 = load ptr, ptr %31, align 8, !tbaa !40
  %.not = icmp eq ptr %.016, null
  br i1 %.not, label %rb_ll2num_inline.exit, label %.preheader, !llvm.loop !50

rb_ll2num_inline.exit:                            ; preds = %30, %1, %23, %20
  %.0 = phi i64 [ %22, %20 ], [ %24, %23 ], [ 0, %1 ], [ 0, %30 ]
  ret i64 %.0
}